; Function Attrs: nounwind uwtable
define ptr @l_Std_Time_Internal_Bounded_LE_sub___rarg(ptr noundef %0, ptr noundef %1) local_unnamed_addr #1 {
  %3 = ptrtoint ptr %1 to i64
  %4 = and i64 %3, 1
  %.not.i5 = icmp eq i64 %4, 0
  br i1 %.not.i5, label %18, label %5, !prof !10

5:                                                ; preds = %2
  %6 = shl i64 %3, 31
  %7 = ashr i64 %6, 32
  %8 = sub nsw i64 0, %7
  %9 = add nsw i64 %7, 2147483647
  %10 = icmp ult i64 %9, 4294967296
  br i1 %10, label %11, label %16, !prof !9

11:                                               ; preds = %5
  %12 = shl nsw i64 %8, 1
  %13 = and i64 %12, 8589934590
  %14 = or disjoint i64 %13, 1
  %15 = inttoptr i64 %14 to ptr
  br label %lean_int_neg.exit

16:                                               ; preds = %5
  %17 = tail call ptr @lean_big_int64_to_int(i64 noundef range(i64 -4611686016279904256, 4611686018427387905) %8) #5
  br label %lean_int_neg.exit

18:                                               ; preds = %2
  %19 = tail call ptr @lean_int_big_neg(ptr noundef %1) #5
  br label %lean_int_neg.exit

lean_int_neg.exit:                                ; preds = %11, %16, %18
  %.0.i = phi ptr [ %19, %18 ], [ %15, %11 ], [ %17, %16 ]
  %20 = ptrtoint ptr %0 to i64
  %21 = and i64 %20, 1
  %.not.i6 = icmp eq i64 %21, 0
  %.pre10 = ptrtoint ptr %.0.i to i64
  %.pre = and i64 %.pre10, 1
  %22 = icmp eq i64 %.pre, 0
  br i1 %.not.i6, label %lean_int_add.exit, label %23, !prof !10

23:                                               ; preds = %lean_int_neg.exit
  br i1 %22, label %lean_int_add.exit.thread14, label %25, !prof !10

lean_int_add.exit.thread14:                       ; preds = %23
  %24 = tail call ptr @lean_int_big_add(ptr noundef %0, ptr noundef %.0.i) #5
  br label %41

25:                                               ; preds = %23
  %26 = shl i64 %20, 31
  %27 = ashr i64 %26, 32
  %28 = shl i64 %.pre10, 31
  %29 = ashr i64 %28, 32
  %30 = add nsw i64 %29, %27
  %31 = add nsw i64 %30, 2147483648
  %32 = icmp ult i64 %31, 4294967296
  br i1 %32, label %33, label %38, !prof !9

33:                                               ; preds = %25
  %34 = shl nsw i64 %30, 1
  %35 = and i64 %34, 8589934590
  %36 = or disjoint i64 %35, 1
  %37 = inttoptr i64 %36 to ptr
  br label %lean_dec.exit

38:                                               ; preds = %25
  %39 = tail call ptr @lean_big_int64_to_int(i64 noundef range(i64 -4611686016279904256, 4611686018427387905) %30) #5
  br label %lean_dec.exit

lean_int_add.exit:                                ; preds = %lean_int_neg.exit
  %40 = tail call ptr @lean_int_big_add(ptr noundef %0, ptr noundef %.0.i) #5
  br i1 %22, label %41, label %lean_dec.exit

41:                                               ; preds = %lean_int_add.exit.thread14, %lean_int_add.exit
  %42 = phi ptr [ %24, %lean_int_add.exit.thread14 ], [ %40, %lean_int_add.exit ]
  %43 = load i32, ptr %.0.i, align 4, !tbaa !4
  %44 = icmp sgt i32 %43, 1
  br i1 %44, label %45, label %47, !prof !9

45:                                               ; preds = %41
  %46 = add nsw i32 %43, -1
  store i32 %46, ptr %.0.i, align 4, !tbaa !4
  br label %lean_dec.exit

47:                                               ; preds = %41
  %.not.i = icmp eq i32 %43, 0
  br i1 %.not.i, label %lean_dec.exit, label %48

48:                                               ; preds = %47
  tail call void @lean_dec_ref_cold(ptr noundef nonnull %.0.i) #5
  br label %lean_dec.exit

lean_dec.exit:                                    ; preds = %38, %33, %48, %47, %45, %lean_int_add.exit
  %.0.i713 = phi ptr [ %42, %48 ], [ %42, %47 ], [ %42, %45 ], [ %40, %lean_int_add.exit ], [ %39, %38 ], [ %37, %33 ]
  ret ptr %.0.i713
}